target datalayout = "e-m:e-p270:32:32-p271:32:32-p272:64:64-i64:64-i128:128-f80:128-n8:16:32:64-S128"
target triple = "x86_64-pc-linux-gnu"

%struct.ec_group_st = type { ptr, ptr, %struct.bignum_st, %struct.bignum_st, i32, ptr, %struct.bignum_st, %struct.bignum_st, %struct.bignum_st, i32, ptr, %struct.bignum_st }
%struct.bignum_st = type { ptr, i32, i32, i32, i32 }
%struct.ec_method_st = type { ptr, ptr, ptr, ptr, ptr, ptr, ptr, ptr, ptr, ptr, ptr }
%struct.ec_point_st = type { ptr, %struct.bignum_st, %struct.bignum_st, %struct.bignum_st }

@.str = private unnamed_addr constant [122 x i8] c"generated/home/dtcxzyw/WorkSpace/Projects/compilers/llvm-opt-benchmark/bench/libquic/libquic/boringssl/crypto/ec/simple.c\00", align 1

; Function Attrs: nounwind uwtable
define internal i32 @set_Jprojective_coordinate_GFp(ptr noundef %0, ptr noundef %1, ptr noundef %2, ptr noundef %3) #0 {
  %5 = alloca i32, align 4
  %6 = alloca ptr, align 8
  %7 = alloca ptr, align 8
  %8 = alloca ptr, align 8
  %9 = alloca ptr, align 8
  store ptr %0, ptr %6, align 8, !tbaa !6
  store ptr %1, ptr %7, align 8, !tbaa !19
  store ptr %2, ptr %8, align 8, !tbaa !19
  store ptr %3, ptr %9, align 8, !tbaa !21
  %10 = load ptr, ptr %8, align 8, !tbaa !19
  %11 = icmp eq ptr %10, null
  br i1 %11, label %12, label %13

12:                                               ; preds = %4
  store i32 1, ptr %5, align 4
  br label %48

13:                                               ; preds = %4
  %14 = load ptr, ptr %8, align 8, !tbaa !19
  %15 = call i32 @BN_is_negative(ptr noundef %14)
  %16 = icmp ne i32 %15, 0
  br i1 %16, label %23, label %17

17:                                               ; preds = %13
  %18 = load ptr, ptr %8, align 8, !tbaa !19
  %19 = load ptr, ptr %6, align 8, !tbaa !6
  %20 = getelementptr inbounds nuw %struct.ec_group_st, ptr %19, i32 0, i32 6
  %21 = call i32 @BN_cmp(ptr noundef %18, ptr noundef %20)
  %22 = icmp sge i32 %21, 0
  br i1 %22, label %23, label %24

23:                                               ; preds = %17, %13
  call void @ERR_put_error(i32 noundef 15, i32 noundef 0, i32 noundef 101, ptr noundef @.str, i32 noundef 280)
  store i32 0, ptr %5, align 4
  br label %48

24:                                               ; preds = %17
  %25 = load ptr, ptr %6, align 8, !tbaa !6
  %26 = getelementptr inbounds nuw %struct.ec_group_st, ptr %25, i32 0, i32 0
  %27 = load ptr, ptr %26, align 8, !tbaa !24
  %28 = getelementptr inbounds nuw %struct.ec_method_st, ptr %27, i32 0, i32 9
  %29 = load ptr, ptr %28, align 8, !tbaa !25
  %30 = icmp ne ptr %29, null
  br i1 %30, label %31, label %42

31:                                               ; preds = %24
  %32 = load ptr, ptr %6, align 8, !tbaa !6
  %33 = getelementptr inbounds nuw %struct.ec_group_st, ptr %32, i32 0, i32 0
  %34 = load ptr, ptr %33, align 8, !tbaa !24
  %35 = getelementptr inbounds nuw %struct.ec_method_st, ptr %34, i32 0, i32 9
  %36 = load ptr, ptr %35, align 8, !tbaa !25
  %37 = load ptr, ptr %6, align 8, !tbaa !6
  %38 = load ptr, ptr %7, align 8, !tbaa !19
  %39 = load ptr, ptr %8, align 8, !tbaa !19
  %40 = load ptr, ptr %9, align 8, !tbaa !21
  %41 = call i32 %36(ptr noundef %37, ptr noundef %38, ptr noundef %39, ptr noundef %40)
  store i32 %41, ptr %5, align 4
  br label %48

42:                                               ; preds = %24
  %43 = load ptr, ptr %7, align 8, !tbaa !19
  %44 = load ptr, ptr %8, align 8, !tbaa !19
  %45 = call ptr @BN_copy(ptr noundef %43, ptr noundef %44)
  %46 = icmp ne ptr %45, null
  %47 = zext i1 %46 to i32
  store i32 %47, ptr %5, align 4
  br label %48

48:                                               ; preds = %42, %31, %23, %12
  %49 = load i32, ptr %5, align 4
  ret i32 %49
}

; Function Attrs: nounwind uwtable
define hidden i32 @ec_GFp_simple_set_Jprojective_coordinates_GFp(ptr noundef %0, ptr noundef %1, ptr noundef %2, ptr noundef %3, ptr noundef %4, ptr noundef %5) #0 {
  %7 = alloca i32, align 4
  %8 = alloca ptr, align 8
  %9 = alloca ptr, align 8
  %10 = alloca ptr, align 8
  %11 = alloca ptr, align 8
  %12 = alloca ptr, align 8
  %13 = alloca ptr, align 8
  %14 = alloca ptr, align 8
  %15 = alloca i32, align 4
  %16 = alloca i32, align 4
  store ptr %0, ptr %8, align 8, !tbaa !6
  store ptr %1, ptr %9, align 8, !tbaa !28
  store ptr %2, ptr %10, align 8, !tbaa !19
  store ptr %3, ptr %11, align 8, !tbaa !19
  store ptr %4, ptr %12, align 8, !tbaa !19
  store ptr %5, ptr %13, align 8, !tbaa !21
  call void @llvm.lifetime.start.p0(i64 8, ptr %14) #6
  store ptr null, ptr %14, align 8, !tbaa !21
  call void @llvm.lifetime.start.p0(i64 4, ptr %15) #6
  store i32 0, ptr %15, align 4, !tbaa !23
  %17 = load ptr, ptr %13, align 8, !tbaa !21
  %18 = icmp eq ptr %17, null
  br i1 %18, label %19, label %25

19:                                               ; preds = %6
  %20 = call ptr @BN_CTX_new()
  store ptr %20, ptr %14, align 8, !tbaa !21
  store ptr %20, ptr %13, align 8, !tbaa !21
  %21 = load ptr, ptr %13, align 8, !tbaa !21
  %22 = icmp eq ptr %21, null
  br i1 %22, label %23, label %24

23:                                               ; preds = %19
  store i32 0, ptr %7, align 4
  store i32 1, ptr %16, align 4
  br label %54

24:                                               ; preds = %19
  br label %25

25:                                               ; preds = %24, %6
  %26 = load ptr, ptr %8, align 8, !tbaa !6
  %27 = load ptr, ptr %9, align 8, !tbaa !28
  %28 = getelementptr inbounds nuw %struct.ec_point_st, ptr %27, i32 0, i32 1
  %29 = load ptr, ptr %10, align 8, !tbaa !19
  %30 = load ptr, ptr %13, align 8, !tbaa !21
  %31 = call i32 @set_Jprojective_coordinate_GFp(ptr noundef %26, ptr noundef %28, ptr noundef %29, ptr noundef %30)
  %32 = icmp ne i32 %31, 0
  br i1 %32, label %33, label %49

33:                                               ; preds = %25
  %34 = load ptr, ptr %8, align 8, !tbaa !6
  %35 = load ptr, ptr %9, align 8, !tbaa !28
  %36 = getelementptr inbounds nuw %struct.ec_point_st, ptr %35, i32 0, i32 2
  %37 = load ptr, ptr %11, align 8, !tbaa !19
  %38 = load ptr, ptr %13, align 8, !tbaa !21
  %39 = call i32 @set_Jprojective_coordinate_GFp(ptr noundef %34, ptr noundef %36, ptr noundef %37, ptr noundef %38)
  %40 = icmp ne i32 %39, 0
  br i1 %40, label %41, label %49

41:                                               ; preds = %33
  %42 = load ptr, ptr %8, align 8, !tbaa !6
  %43 = load ptr, ptr %9, align 8, !tbaa !28
  %44 = getelementptr inbounds nuw %struct.ec_point_st, ptr %43, i32 0, i32 3
  %45 = load ptr, ptr %12, align 8, !tbaa !19
  %46 = load ptr, ptr %13, align 8, !tbaa !21
  %47 = call i32 @set_Jprojective_coordinate_GFp(ptr noundef %42, ptr noundef %44, ptr noundef %45, ptr noundef %46)
  %48 = icmp ne i32 %47, 0
  br i1 %48, label %50, label %49

49:                                               ; preds = %41, %33, %25
  br label %51

50:                                               ; preds = %41
  store i32 1, ptr %15, align 4, !tbaa !23
  br label %51

51:                                               ; preds = %50, %49
  %52 = load ptr, ptr %14, align 8, !tbaa !21
  call void @BN_CTX_free(ptr noundef %52)
  %53 = load i32, ptr %15, align 4, !tbaa !23
  store i32 %53, ptr %7, align 4
  store i32 1, ptr %16, align 4
  br label %54

54:                                               ; preds = %51, %23
  call void @llvm.lifetime.end.p0(i64 4, ptr %15) #6
  call void @llvm.lifetime.end.p0(i64 8, ptr %14) #6
  %55 = load i32, ptr %7, align 4
  ret i32 %55
}