; Function Attrs: nounwind uwtable
define hidden range(i32 0, 2) i32 @ec_GFp_simple_set_Jprojective_coordinates_GFp(ptr noundef %0, ptr noundef %1, ptr noundef %2, ptr noundef %3, ptr noundef %4, ptr noundef %5) local_unnamed_addr #0 {
  %7 = icmp eq ptr %5, null
  br i1 %7, label %8, label %11

8:                                                ; preds = %6
  %9 = tail call ptr @BN_CTX_new() #5
  %10 = icmp eq ptr %9, null
  br i1 %10, label %61, label %11

11:                                               ; preds = %8, %6
  %.017 = phi ptr [ %9, %8 ], [ %5, %6 ]
  %.016 = phi ptr [ %9, %8 ], [ null, %6 ]
  %12 = getelementptr inbounds nuw i8, ptr %1, i64 8
  %13 = icmp eq ptr %2, null
  br i1 %13, label %set_Jprojective_coordinate_GFp.exit.thread33, label %14

14:                                               ; preds = %11
  %15 = tail call i32 @BN_is_negative(ptr noundef nonnull %2) #5
  %.not.i = icmp eq i32 %15, 0
  br i1 %.not.i, label %16, label %set_Jprojective_coordinate_GFp.exit.thread

16:                                               ; preds = %14
  %17 = getelementptr inbounds nuw i8, ptr %0, i64 80
  %18 = tail call i32 @BN_cmp(ptr noundef nonnull %2, ptr noundef nonnull %17) #5
  %19 = icmp sgt i32 %18, -1
  br i1 %19, label %set_Jprojective_coordinate_GFp.exit.thread, label %20

set_Jprojective_coordinate_GFp.exit.thread:       ; preds = %14, %16
  tail call void @ERR_put_error(i32 noundef 15, i32 noundef 0, i32 noundef 101, ptr noundef nonnull @.str, i32 noundef 280) #5
  br label %set_Jprojective_coordinate_GFp.exit30.thread44

20:                                               ; preds = %16
  %21 = load ptr, ptr %0, align 8, !tbaa !17
  %22 = getelementptr inbounds nuw i8, ptr %21, i64 72
  %23 = load ptr, ptr %22, align 8, !tbaa !18
  %.not14.i = icmp eq ptr %23, null
  br i1 %.not14.i, label %set_Jprojective_coordinate_GFp.exit, label %24

24:                                               ; preds = %20
  %25 = tail call i32 %23(ptr noundef nonnull %0, ptr noundef nonnull %12, ptr noundef nonnull %2, ptr noundef nonnull %.017) #5
  %26 = icmp eq i32 %25, 0
  br i1 %26, label %set_Jprojective_coordinate_GFp.exit30.thread44, label %set_Jprojective_coordinate_GFp.exit.thread33

set_Jprojective_coordinate_GFp.exit:              ; preds = %20
  %27 = tail call ptr @BN_copy(ptr noundef nonnull %12, ptr noundef nonnull %2) #5
  %.not = icmp eq ptr %27, null
  br i1 %.not, label %set_Jprojective_coordinate_GFp.exit30.thread44, label %set_Jprojective_coordinate_GFp.exit.thread33

set_Jprojective_coordinate_GFp.exit.thread33:     ; preds = %24, %11, %set_Jprojective_coordinate_GFp.exit
  %28 = getelementptr inbounds nuw i8, ptr %1, i64 32
  %29 = icmp eq ptr %3, null
  br i1 %29, label %set_Jprojective_coordinate_GFp.exit26.thread38, label %30

30:                                               ; preds = %set_Jprojective_coordinate_GFp.exit.thread33
  %31 = tail call i32 @BN_is_negative(ptr noundef nonnull %3) #5
  %.not.i23 = icmp eq i32 %31, 0
  br i1 %.not.i23, label %32, label %set_Jprojective_coordinate_GFp.exit26.thread

32:                                               ; preds = %30
  %33 = getelementptr inbounds nuw i8, ptr %0, i64 80
  %34 = tail call i32 @BN_cmp(ptr noundef nonnull %3, ptr noundef nonnull %33) #5
  %35 = icmp sgt i32 %34, -1
  br i1 %35, label %set_Jprojective_coordinate_GFp.exit26.thread, label %36

set_Jprojective_coordinate_GFp.exit26.thread:     ; preds = %30, %32
  tail call void @ERR_put_error(i32 noundef 15, i32 noundef 0, i32 noundef 101, ptr noundef nonnull @.str, i32 noundef 280) #5
  br label %set_Jprojective_coordinate_GFp.exit30.thread44

36:                                               ; preds = %32
  %37 = load ptr, ptr %0, align 8, !tbaa !17
  %38 = getelementptr inbounds nuw i8, ptr %37, i64 72
  %39 = load ptr, ptr %38, align 8, !tbaa !18
  %.not14.i25 = icmp eq ptr %39, null
  br i1 %.not14.i25, label %set_Jprojective_coordinate_GFp.exit26, label %40

40:                                               ; preds = %36
  %41 = tail call i32 %39(ptr noundef nonnull %0, ptr noundef nonnull %28, ptr noundef nonnull %3, ptr noundef nonnull %.017) #5
  %42 = icmp eq i32 %41, 0
  br i1 %42, label %set_Jprojective_coordinate_GFp.exit30.thread44, label %set_Jprojective_coordinate_GFp.exit26.thread38

set_Jprojective_coordinate_GFp.exit26:            ; preds = %36
  %43 = tail call ptr @BN_copy(ptr noundef nonnull %28, ptr noundef nonnull %3) #5
  %.not48 = icmp eq ptr %43, null
  br i1 %.not48, label %set_Jprojective_coordinate_GFp.exit30.thread44, label %set_Jprojective_coordinate_GFp.exit26.thread38

set_Jprojective_coordinate_GFp.exit26.thread38:   ; preds = %40, %set_Jprojective_coordinate_GFp.exit.thread33, %set_Jprojective_coordinate_GFp.exit26
  %44 = getelementptr inbounds nuw i8, ptr %1, i64 56
  %45 = icmp eq ptr %4, null
  br i1 %45, label %set_Jprojective_coordinate_GFp.exit30.thread44, label %46

46:                                               ; preds = %set_Jprojective_coordinate_GFp.exit26.thread38
  %47 = tail call i32 @BN_is_negative(ptr noundef nonnull %4) #5
  %.not.i27 = icmp eq i32 %47, 0
  br i1 %.not.i27, label %48, label %set_Jprojective_coordinate_GFp.exit30.thread

48:                                               ; preds = %46
  %49 = getelementptr inbounds nuw i8, ptr %0, i64 80
  %50 = tail call i32 @BN_cmp(ptr noundef nonnull %4, ptr noundef nonnull %49) #5
  %51 = icmp sgt i32 %50, -1
  br i1 %51, label %set_Jprojective_coordinate_GFp.exit30.thread, label %52

set_Jprojective_coordinate_GFp.exit30.thread:     ; preds = %46, %48
  tail call void @ERR_put_error(i32 noundef 15, i32 noundef 0, i32 noundef 101, ptr noundef nonnull @.str, i32 noundef 280) #5
  br label %60

52:                                               ; preds = %48
  %53 = load ptr, ptr %0, align 8, !tbaa !17
  %54 = getelementptr inbounds nuw i8, ptr %53, i64 72
  %55 = load ptr, ptr %54, align 8, !tbaa !18
  %.not14.i29 = icmp eq ptr %55, null
  br i1 %.not14.i29, label %set_Jprojective_coordinate_GFp.exit30, label %56

56:                                               ; preds = %52
  %57 = tail call i32 %55(ptr noundef nonnull %0, ptr noundef nonnull %44, ptr noundef nonnull %4, ptr noundef nonnull %.017) #5
  %.fr = freeze i32 %57
  %58 = icmp eq i32 %.fr, 0
  br i1 %58, label %60, label %set_Jprojective_coordinate_GFp.exit30.thread44

set_Jprojective_coordinate_GFp.exit30:            ; preds = %52
  %59 = tail call ptr @BN_copy(ptr noundef nonnull %44, ptr noundef nonnull %4) #5
  %.fr51 = freeze ptr %59
  %.not49 = icmp eq ptr %.fr51, null
  br i1 %.not49, label %60, label %set_Jprojective_coordinate_GFp.exit30.thread44

60:                                               ; preds = %56, %set_Jprojective_coordinate_GFp.exit30.thread, %set_Jprojective_coordinate_GFp.exit30
  br label %set_Jprojective_coordinate_GFp.exit30.thread44

set_Jprojective_coordinate_GFp.exit30.thread44:   ; preds = %56, %40, %24, %set_Jprojective_coordinate_GFp.exit26.thread38, %60, %set_Jprojective_coordinate_GFp.exit30, %set_Jprojective_coordinate_GFp.exit26.thread, %set_Jprojective_coordinate_GFp.exit.thread, %set_Jprojective_coordinate_GFp.exit, %set_Jprojective_coordinate_GFp.exit26
  %.0 = phi i32 [ 0, %set_Jprojective_coordinate_GFp.exit26 ], [ 0, %set_Jprojective_coordinate_GFp.exit ], [ 0, %set_Jprojective_coordinate_GFp.exit.thread ], [ 0, %set_Jprojective_coordinate_GFp.exit26.thread ], [ 0, %60 ], [ 1, %set_Jprojective_coordinate_GFp.exit30 ], [ 1, %set_Jprojective_coordinate_GFp.exit26.thread38 ], [ 0, %24 ], [ 0, %40 ], [ 1, %56 ]
  tail call void @BN_CTX_free(ptr noundef %.016) #5
  br label %61

61:                                               ; preds = %8, %set_Jprojective_coordinate_GFp.exit30.thread44
  %.018 = phi i32 [ %.0, %set_Jprojective_coordinate_GFp.exit30.thread44 ], [ 0, %8 ]
  ret i32 %.018
}